target datalayout = "e-m:e-p270:32:32-p271:32:32-p272:64:64-i64:64-i128:128-f80:128-n8:16:32:64-S128"
target triple = "x86_64-pc-linux-gnu"

%"struct.LightGBM::Tree::PathElement" = type { i32, double, double, double }

; Function Attrs: mustprogress nounwind uwtable
define void @_ZN8LightGBM4Tree10UnwindPathEPNS0_11PathElementEii(ptr noundef %0, i32 noundef %1, i32 noundef %2) #0 align 2 {
  %4 = alloca ptr, align 8
  %5 = alloca i32, align 4
  %6 = alloca i32, align 4
  %7 = alloca double, align 8
  %8 = alloca double, align 8
  %9 = alloca double, align 8
  %10 = alloca i32, align 4
  %11 = alloca double, align 8
  %12 = alloca i32, align 4
  store ptr %0, ptr %4, align 8, !tbaa !1531
  store i32 %1, ptr %5, align 4, !tbaa !13
  store i32 %2, ptr %6, align 4, !tbaa !13
  call void @llvm.lifetime.start.p0(i64 8, ptr %7) #7
  %13 = load ptr, ptr %4, align 8, !tbaa !1531
  %14 = load i32, ptr %6, align 4, !tbaa !13
  %15 = sext i32 %14 to i64
  %16 = getelementptr inbounds %"struct.LightGBM::Tree::PathElement", ptr %13, i64 %15
  %17 = getelementptr inbounds nuw %"struct.LightGBM::Tree::PathElement", ptr %16, i32 0, i32 2
  %18 = load double, ptr %17, align 8, !tbaa !1536
  store double %18, ptr %7, align 8, !tbaa !57
  call void @llvm.lifetime.start.p0(i64 8, ptr %8) #7
  %19 = load ptr, ptr %4, align 8, !tbaa !1531
  %20 = load i32, ptr %6, align 4, !tbaa !13
  %21 = sext i32 %20 to i64
  %22 = getelementptr inbounds %"struct.LightGBM::Tree::PathElement", ptr %19, i64 %21
  %23 = getelementptr inbounds nuw %"struct.LightGBM::Tree::PathElement", ptr %22, i32 0, i32 1
  %24 = load double, ptr %23, align 8, !tbaa !1535
  store double %24, ptr %8, align 8, !tbaa !57
  call void @llvm.lifetime.start.p0(i64 8, ptr %9) #7
  %25 = load ptr, ptr %4, align 8, !tbaa !1531
  %26 = load i32, ptr %5, align 4, !tbaa !13
  %27 = sext i32 %26 to i64
  %28 = getelementptr inbounds %"struct.LightGBM::Tree::PathElement", ptr %25, i64 %27
  %29 = getelementptr inbounds nuw %"struct.LightGBM::Tree::PathElement", ptr %28, i32 0, i32 3
  %30 = load double, ptr %29, align 8, !tbaa !1537
  store double %30, ptr %9, align 8, !tbaa !57
  call void @llvm.lifetime.start.p0(i64 4, ptr %10) #7
  %31 = load i32, ptr %5, align 4, !tbaa !13
  %32 = sub nsw i32 %31, 1
  store i32 %32, ptr %10, align 4, !tbaa !13
  br label %33

33:                                               ; preds = %106, %3
  %34 = load i32, ptr %10, align 4, !tbaa !13
  %35 = icmp sge i32 %34, 0
  br i1 %35, label %37, label %36

36:                                               ; preds = %33
  call void @llvm.lifetime.end.p0(i64 4, ptr %10) #7
  br label %109

37:                                               ; preds = %33
  %38 = load double, ptr %7, align 8, !tbaa !57
  %39 = fcmp une double %38, 0.000000e+00
  br i1 %39, label %40, label %82

40:                                               ; preds = %37
  call void @llvm.lifetime.start.p0(i64 8, ptr %11) #7
  %41 = load ptr, ptr %4, align 8, !tbaa !1531
  %42 = load i32, ptr %10, align 4, !tbaa !13
  %43 = sext i32 %42 to i64
  %44 = getelementptr inbounds %"struct.LightGBM::Tree::PathElement", ptr %41, i64 %43
  %45 = getelementptr inbounds nuw %"struct.LightGBM::Tree::PathElement", ptr %44, i32 0, i32 3
  %46 = load double, ptr %45, align 8, !tbaa !1537
  store double %46, ptr %11, align 8, !tbaa !57
  %47 = load double, ptr %9, align 8, !tbaa !57
  %48 = load i32, ptr %5, align 4, !tbaa !13
  %49 = add nsw i32 %48, 1
  %50 = sitofp i32 %49 to double
  %51 = fmul double %47, %50
  %52 = load i32, ptr %10, align 4, !tbaa !13
  %53 = add nsw i32 %52, 1
  %54 = sitofp i32 %53 to double
  %55 = load double, ptr %7, align 8, !tbaa !57
  %56 = fmul double %54, %55
  %57 = fdiv double %51, %56
  %58 = load ptr, ptr %4, align 8, !tbaa !1531
  %59 = load i32, ptr %10, align 4, !tbaa !13
  %60 = sext i32 %59 to i64
  %61 = getelementptr inbounds %"struct.LightGBM::Tree::PathElement", ptr %58, i64 %60
  %62 = getelementptr inbounds nuw %"struct.LightGBM::Tree::PathElement", ptr %61, i32 0, i32 3
  store double %57, ptr %62, align 8, !tbaa !1537
  %63 = load double, ptr %11, align 8, !tbaa !57
  %64 = load ptr, ptr %4, align 8, !tbaa !1531
  %65 = load i32, ptr %10, align 4, !tbaa !13
  %66 = sext i32 %65 to i64
  %67 = getelementptr inbounds %"struct.LightGBM::Tree::PathElement", ptr %64, i64 %66
  %68 = getelementptr inbounds nuw %"struct.LightGBM::Tree::PathElement", ptr %67, i32 0, i32 3
  %69 = load double, ptr %68, align 8, !tbaa !1537
  %70 = load double, ptr %8, align 8, !tbaa !57
  %71 = fmul double %69, %70
  %72 = load i32, ptr %5, align 4, !tbaa !13
  %73 = load i32, ptr %10, align 4, !tbaa !13
  %74 = sub nsw i32 %72, %73
  %75 = sitofp i32 %74 to double
  %76 = fmul double %71, %75
  %77 = load i32, ptr %5, align 4, !tbaa !13
  %78 = add nsw i32 %77, 1
  %79 = sitofp i32 %78 to double
  %80 = fdiv double %76, %79
  %81 = fsub double %63, %80
  store double %81, ptr %9, align 8, !tbaa !57
  call void @llvm.lifetime.end.p0(i64 8, ptr %11) #7
  br label %105

82:                                               ; preds = %37
  %83 = load ptr, ptr %4, align 8, !tbaa !1531
  %84 = load i32, ptr %10, align 4, !tbaa !13
  %85 = sext i32 %84 to i64
  %86 = getelementptr inbounds %"struct.LightGBM::Tree::PathElement", ptr %83, i64 %85
  %87 = getelementptr inbounds nuw %"struct.LightGBM::Tree::PathElement", ptr %86, i32 0, i32 3
  %88 = load double, ptr %87, align 8, !tbaa !1537
  %89 = load i32, ptr %5, align 4, !tbaa !13
  %90 = add nsw i32 %89, 1
  %91 = sitofp i32 %90 to double
  %92 = fmul double %88, %91
  %93 = load double, ptr %8, align 8, !tbaa !57
  %94 = load i32, ptr %5, align 4, !tbaa !13
  %95 = load i32, ptr %10, align 4, !tbaa !13
  %96 = sub nsw i32 %94, %95
  %97 = sitofp i32 %96 to double
  %98 = fmul double %93, %97
  %99 = fdiv double %92, %98
  %100 = load ptr, ptr %4, align 8, !tbaa !1531
  %101 = load i32, ptr %10, align 4, !tbaa !13
  %102 = sext i32 %101 to i64
  %103 = getelementptr inbounds %"struct.LightGBM::Tree::PathElement", ptr %100, i64 %102
  %104 = getelementptr inbounds nuw %"struct.LightGBM::Tree::PathElement", ptr %103, i32 0, i32 3
  store double %99, ptr %104, align 8, !tbaa !1537
  br label %105

105:                                              ; preds = %82, %40
  br label %106

106:                                              ; preds = %105
  %107 = load i32, ptr %10, align 4, !tbaa !13
  %108 = add nsw i32 %107, -1
  store i32 %108, ptr %10, align 4, !tbaa !13
  br label %33, !llvm.loop !1539

109:                                              ; preds = %36
  call void @llvm.lifetime.start.p0(i64 4, ptr %12) #7
  %110 = load i32, ptr %6, align 4, !tbaa !13
  store i32 %110, ptr %12, align 4, !tbaa !13
  br label %111

111:                                              ; preds = %153, %109
  %112 = load i32, ptr %12, align 4, !tbaa !13
  %113 = load i32, ptr %5, align 4, !tbaa !13
  %114 = icmp slt i32 %112, %113
  br i1 %114, label %116, label %115

115:                                              ; preds = %111
  call void @llvm.lifetime.end.p0(i64 4, ptr %12) #7
  br label %156

116:                                              ; preds = %111
  %117 = load ptr, ptr %4, align 8, !tbaa !1531
  %118 = load i32, ptr %12, align 4, !tbaa !13
  %119 = add nsw i32 %118, 1
  %120 = sext i32 %119 to i64
  %121 = getelementptr inbounds %"struct.LightGBM::Tree::PathElement", ptr %117, i64 %120
  %122 = getelementptr inbounds nuw %"struct.LightGBM::Tree::PathElement", ptr %121, i32 0, i32 0
  %123 = load i32, ptr %122, align 8, !tbaa !1533
  %124 = load ptr, ptr %4, align 8, !tbaa !1531
  %125 = load i32, ptr %12, align 4, !tbaa !13
  %126 = sext i32 %125 to i64
  %127 = getelementptr inbounds %"struct.LightGBM::Tree::PathElement", ptr %124, i64 %126
  %128 = getelementptr inbounds nuw %"struct.LightGBM::Tree::PathElement", ptr %127, i32 0, i32 0
  store i32 %123, ptr %128, align 8, !tbaa !1533
  %129 = load ptr, ptr %4, align 8, !tbaa !1531
  %130 = load i32, ptr %12, align 4, !tbaa !13
  %131 = add nsw i32 %130, 1
  %132 = sext i32 %131 to i64
  %133 = getelementptr inbounds %"struct.LightGBM::Tree::PathElement", ptr %129, i64 %132
  %134 = getelementptr inbounds nuw %"struct.LightGBM::Tree::PathElement", ptr %133, i32 0, i32 1
  %135 = load double, ptr %134, align 8, !tbaa !1535
  %136 = load ptr, ptr %4, align 8, !tbaa !1531
  %137 = load i32, ptr %12, align 4, !tbaa !13
  %138 = sext i32 %137 to i64
  %139 = getelementptr inbounds %"struct.LightGBM::Tree::PathElement", ptr %136, i64 %138
  %140 = getelementptr inbounds nuw %"struct.LightGBM::Tree::PathElement", ptr %139, i32 0, i32 1
  store double %135, ptr %140, align 8, !tbaa !1535
  %141 = load ptr, ptr %4, align 8, !tbaa !1531
  %142 = load i32, ptr %12, align 4, !tbaa !13
  %143 = add nsw i32 %142, 1
  %144 = sext i32 %143 to i64
  %145 = getelementptr inbounds %"struct.LightGBM::Tree::PathElement", ptr %141, i64 %144
  %146 = getelementptr inbounds nuw %"struct.LightGBM::Tree::PathElement", ptr %145, i32 0, i32 2
  %147 = load double, ptr %146, align 8, !tbaa !1536
  %148 = load ptr, ptr %4, align 8, !tbaa !1531
  %149 = load i32, ptr %12, align 4, !tbaa !13
  %150 = sext i32 %149 to i64
  %151 = getelementptr inbounds %"struct.LightGBM::Tree::PathElement", ptr %148, i64 %150
  %152 = getelementptr inbounds nuw %"struct.LightGBM::Tree::PathElement", ptr %151, i32 0, i32 2
  store double %147, ptr %152, align 8, !tbaa !1536
  br label %153

153:                                              ; preds = %116
  %154 = load i32, ptr %12, align 4, !tbaa !13
  %155 = add nsw i32 %154, 1
  store i32 %155, ptr %12, align 4, !tbaa !13
  br label %111, !llvm.loop !1540

156:                                              ; preds = %115
  call void @llvm.lifetime.end.p0(i64 8, ptr %9) #7
  call void @llvm.lifetime.end.p0(i64 8, ptr %8) #7
  call void @llvm.lifetime.end.p0(i64 8, ptr %7) #7
  ret void
}