; Function Attrs: mustprogress nofree norecurse nosync nounwind memory(argmem: readwrite) uwtable
define void @_ZN8LightGBM4Tree10UnwindPathEPNS0_11PathElementEii(ptr noundef captures(none) %0, i32 noundef %1, i32 noundef %2) local_unnamed_addr #34 align 2 {
  %4 = sext i32 %2 to i64
  %5 = getelementptr inbounds %"struct.LightGBM::Tree::PathElement", ptr %0, i64 %4
  %6 = getelementptr inbounds nuw i8, ptr %5, i64 16
  %7 = load double, ptr %6, align 8, !tbaa !1057
  %8 = getelementptr inbounds nuw i8, ptr %5, i64 8
  %9 = load double, ptr %8, align 8, !tbaa !1056
  %10 = icmp sgt i32 %1, 0
  br i1 %10, label %.lr.ph, label %.preheader

.lr.ph:                                           ; preds = %3
  %.04951 = add nsw i32 %1, -1
  %11 = fcmp une double %7, 0.000000e+00
  %12 = add nuw nsw i32 %1, 1
  %13 = uitofp nneg i32 %12 to double
  br i1 %11, label %.lr.ph.split.us.preheader, label %.lr.ph.split.preheader

.lr.ph.split.preheader:                           ; preds = %.lr.ph
  %14 = zext nneg i32 %.04951 to i64
  br label %.lr.ph.split

.lr.ph.split.us.preheader:                        ; preds = %.lr.ph
  %15 = zext nneg i32 %1 to i64
  %16 = getelementptr inbounds nuw %"struct.LightGBM::Tree::PathElement", ptr %0, i64 %15, i32 3
  %17 = load double, ptr %16, align 8, !tbaa !1058
  %18 = zext nneg i32 %.04951 to i64
  br label %.lr.ph.split.us

.lr.ph.split.us:                                  ; preds = %.lr.ph.split.us.preheader, %.lr.ph.split.us
  %indvars.iv59 = phi i64 [ %18, %.lr.ph.split.us.preheader ], [ %indvars.iv.next60, %.lr.ph.split.us ]
  %.04853.us = phi double [ %17, %.lr.ph.split.us.preheader ], [ %31, %.lr.ph.split.us ]
  %.049.in52.us = phi i32 [ %1, %.lr.ph.split.us.preheader ], [ %32, %.lr.ph.split.us ]
  %19 = getelementptr inbounds nuw %"struct.LightGBM::Tree::PathElement", ptr %0, i64 %indvars.iv59, i32 3
  %20 = load double, ptr %19, align 8, !tbaa !1058
  %21 = fmul double %.04853.us, %13
  %22 = uitofp nneg i32 %.049.in52.us to double
  %23 = fmul double %7, %22
  %24 = fdiv double %21, %23
  store double %24, ptr %19, align 8, !tbaa !1058
  %25 = fmul double %9, %24
  %26 = trunc i64 %indvars.iv59 to i32
  %27 = sub i32 %1, %26
  %28 = sitofp i32 %27 to double
  %29 = fmul double %25, %28
  %30 = fdiv double %29, %13
  %31 = fsub double %20, %30
  %indvars.iv.next60 = add nsw i64 %indvars.iv59, -1
  %.not66 = icmp eq i64 %indvars.iv59, 0
  %32 = trunc nuw nsw i64 %indvars.iv59 to i32
  br i1 %.not66, label %.preheader, label %.lr.ph.split.us, !llvm.loop !1060

.preheader:                                       ; preds = %.lr.ph.split, %.lr.ph.split.us, %3
  %33 = icmp slt i32 %2, %1
  br i1 %33, label %.lr.ph56.preheader, label %._crit_edge

.lr.ph56.preheader:                               ; preds = %.preheader
  %wide.trip.count = sext i32 %1 to i64
  br label %.lr.ph56

.lr.ph.split:                                     ; preds = %.lr.ph.split.preheader, %.lr.ph.split
  %indvars.iv = phi i64 [ %14, %.lr.ph.split.preheader ], [ %indvars.iv.next, %.lr.ph.split ]
  %34 = getelementptr inbounds nuw %"struct.LightGBM::Tree::PathElement", ptr %0, i64 %indvars.iv, i32 3
  %35 = load double, ptr %34, align 8, !tbaa !1058
  %36 = fmul double %35, %13
  %37 = trunc i64 %indvars.iv to i32
  %38 = sub i32 %1, %37
  %39 = sitofp i32 %38 to double
  %40 = fmul double %9, %39
  %41 = fdiv double %36, %40
  store double %41, ptr %34, align 8, !tbaa !1058
  %indvars.iv.next = add nsw i64 %indvars.iv, -1
  %.not = icmp eq i64 %indvars.iv, 0
  br i1 %.not, label %.preheader, label %.lr.ph.split, !llvm.loop !1060

._crit_edge:                                      ; preds = %.lr.ph56, %.preheader
  ret void

.lr.ph56:                                         ; preds = %.lr.ph56.preheader, %.lr.ph56
  %indvars.iv62 = phi i64 [ %4, %.lr.ph56.preheader ], [ %indvars.iv.next63, %.lr.ph56 ]
  %indvars.iv.next63 = add nsw i64 %indvars.iv62, 1
  %42 = getelementptr inbounds %"struct.LightGBM::Tree::PathElement", ptr %0, i64 %indvars.iv.next63
  %43 = load i32, ptr %42, align 8, !tbaa !1054
  %44 = getelementptr inbounds %"struct.LightGBM::Tree::PathElement", ptr %0, i64 %indvars.iv62
  store i32 %43, ptr %44, align 8, !tbaa !1054
  %45 = getelementptr inbounds nuw i8, ptr %42, i64 8
  %46 = load double, ptr %45, align 8, !tbaa !1056
  %47 = getelementptr inbounds nuw i8, ptr %44, i64 8
  store double %46, ptr %47, align 8, !tbaa !1056
  %48 = getelementptr inbounds nuw i8, ptr %42, i64 16
  %49 = load double, ptr %48, align 8, !tbaa !1057
  %50 = getelementptr inbounds nuw i8, ptr %44, i64 16
  store double %49, ptr %50, align 8, !tbaa !1057
  %exitcond.not = icmp eq i64 %indvars.iv.next63, %wide.trip.count
  br i1 %exitcond.not, label %._crit_edge, label %.lr.ph56, !llvm.loop !1061
}